target datalayout = "e-m:e-p270:32:32-p271:32:32-p272:64:64-i64:64-i128:128-f80:128-n8:16:32:64-S128"
target triple = "x86_64-pc-linux-gnu"

%struct.Color = type { i8, i8, i8, i8 }
%struct.Image = type { ptr, i32, i32, i32, i32 }

; Function Attrs: nounwind uwtable
define void @GenImageGradientLinear(ptr dead_on_unwind noalias writable sret(%struct.Image) align 8 %0, i32 noundef %1, i32 noundef %2, i32 noundef %3, i32 %4, i32 %5) #0 {
  %7 = alloca %struct.Color, align 1
  %8 = alloca %struct.Color, align 1
  %9 = alloca i32, align 4
  %10 = alloca i32, align 4
  %11 = alloca i32, align 4
  %12 = alloca ptr, align 8
  %13 = alloca float, align 4
  %14 = alloca float, align 4
  %15 = alloca float, align 4
  %16 = alloca float, align 4
  %17 = alloca float, align 4
  %18 = alloca i32, align 4
  %19 = alloca i32, align 4
  %20 = alloca i32, align 4
  %21 = alloca float, align 4
  %22 = alloca float, align 4
  store i32 %4, ptr %7, align 1
  store i32 %5, ptr %8, align 1
  store i32 %1, ptr %9, align 4
  store i32 %2, ptr %10, align 4
  store i32 %3, ptr %11, align 4
  call void @llvm.lifetime.start.p0(i64 8, ptr %12) #19
  %23 = load i32, ptr %9, align 4
  %24 = load i32, ptr %10, align 4
  %25 = mul nsw i32 %23, %24
  %26 = sext i32 %25 to i64
  %27 = mul i64 %26, 4
  %28 = call noalias ptr @malloc(i64 noundef %27) #21
  store ptr %28, ptr %12, align 8
  call void @llvm.lifetime.start.p0(i64 4, ptr %13) #19
  %29 = load i32, ptr %11, align 4
  %30 = sub nsw i32 90, %29
  %31 = sitofp i32 %30 to float
  %32 = fdiv float %31, 1.800000e+02
  %33 = fmul float %32, 0x400921FA00000000
  store float %33, ptr %13, align 4
  call void @llvm.lifetime.start.p0(i64 4, ptr %14) #19
  %34 = load float, ptr %13, align 4
  %35 = call float @cosf(float noundef %34) #19
  store float %35, ptr %14, align 4
  call void @llvm.lifetime.start.p0(i64 4, ptr %15) #19
  %36 = load float, ptr %13, align 4
  %37 = call float @sinf(float noundef %36) #19
  store float %37, ptr %15, align 4
  call void @llvm.lifetime.start.p0(i64 4, ptr %16) #19
  %38 = load float, ptr %14, align 4
  %39 = load i32, ptr %9, align 4
  %40 = sitofp i32 %39 to float
  %41 = fmul float %38, %40
  %42 = fdiv float %41, 2.000000e+00
  %43 = fsub float 5.000000e-01, %42
  %44 = load float, ptr %15, align 4
  %45 = load i32, ptr %10, align 4
  %46 = sitofp i32 %45 to float
  %47 = fmul float %44, %46
  %48 = fdiv float %47, 2.000000e+00
  %49 = fsub float %43, %48
  store float %49, ptr %16, align 4
  call void @llvm.lifetime.start.p0(i64 4, ptr %17) #19
  %50 = load float, ptr %15, align 4
  %51 = bitcast float %50 to i32
  %52 = icmp slt i32 %51, 0
  %53 = zext i1 %52 to i32
  %54 = icmp ne i32 %53, 0
  %55 = zext i1 %54 to i32
  %56 = load float, ptr %14, align 4
  %57 = bitcast float %56 to i32
  %58 = icmp slt i32 %57, 0
  %59 = zext i1 %58 to i32
  %60 = icmp ne i32 %59, 0
  %61 = zext i1 %60 to i32
  %62 = icmp eq i32 %55, %61
  br i1 %62, label %63, label %66

63:                                               ; preds = %6
  %64 = load float, ptr %16, align 4
  %65 = call float @llvm.fabs.f32(float %64)
  br label %74

66:                                               ; preds = %6
  %67 = load float, ptr %16, align 4
  %68 = load i32, ptr %9, align 4
  %69 = sitofp i32 %68 to float
  %70 = load float, ptr %14, align 4
  %71 = fmul float %69, %70
  %72 = fadd float %67, %71
  %73 = call float @llvm.fabs.f32(float %72)
  br label %74

74:                                               ; preds = %66, %63
  %75 = phi float [ %65, %63 ], [ %73, %66 ]
  store float %75, ptr %17, align 4
  call void @llvm.lifetime.start.p0(i64 4, ptr %18) #19
  store i32 0, ptr %18, align 4
  br label %76

76:                                               ; preds = %215, %74
  %77 = load i32, ptr %18, align 4
  %78 = load i32, ptr %9, align 4
  %79 = icmp slt i32 %77, %78
  br i1 %79, label %81, label %80

80:                                               ; preds = %76
  store i32 2, ptr %19, align 4
  call void @llvm.lifetime.end.p0(i64 4, ptr %18) #19
  br label %218

81:                                               ; preds = %76
  call void @llvm.lifetime.start.p0(i64 4, ptr %20) #19
  store i32 0, ptr %20, align 4
  br label %82

82:                                               ; preds = %211, %81
  %83 = load i32, ptr %20, align 4
  %84 = load i32, ptr %10, align 4
  %85 = icmp slt i32 %83, %84
  br i1 %85, label %87, label %86

86:                                               ; preds = %82
  store i32 5, ptr %19, align 4
  call void @llvm.lifetime.end.p0(i64 4, ptr %20) #19
  br label %214

87:                                               ; preds = %82
  call void @llvm.lifetime.start.p0(i64 4, ptr %21) #19
  %88 = load float, ptr %16, align 4
  %89 = load i32, ptr %18, align 4
  %90 = sitofp i32 %89 to float
  %91 = load float, ptr %14, align 4
  %92 = fmul float %90, %91
  %93 = load i32, ptr %20, align 4
  %94 = sitofp i32 %93 to float
  %95 = load float, ptr %15, align 4
  %96 = fmul float %94, %95
  %97 = fadd float %92, %96
  %98 = fadd float %88, %97
  %99 = load float, ptr %17, align 4
  %100 = fdiv float %98, %99
  store float %100, ptr %21, align 4
  call void @llvm.lifetime.start.p0(i64 4, ptr %22) #19
  %101 = load float, ptr %21, align 4
  store float %101, ptr %22, align 4
  %102 = load float, ptr %22, align 4
  %103 = fcmp ogt float %102, 1.000000e+00
  br i1 %103, label %104, label %105

104:                                              ; preds = %87
  br label %107

105:                                              ; preds = %87
  %106 = load float, ptr %22, align 4
  br label %107

107:                                              ; preds = %105, %104
  %108 = phi float [ 1.000000e+00, %104 ], [ %106, %105 ]
  store float %108, ptr %22, align 4
  %109 = load float, ptr %22, align 4
  %110 = fcmp olt float %109, -1.000000e+00
  br i1 %110, label %111, label %112

111:                                              ; preds = %107
  br label %114

112:                                              ; preds = %107
  %113 = load float, ptr %22, align 4
  br label %114

114:                                              ; preds = %112, %111
  %115 = phi float [ -1.000000e+00, %111 ], [ %113, %112 ]
  store float %115, ptr %22, align 4
  %116 = load float, ptr %22, align 4
  %117 = fdiv float %116, 2.000000e+00
  %118 = fadd float %117, 5.000000e-01
  store float %118, ptr %22, align 4
  %119 = getelementptr inbounds nuw %struct.Color, ptr %8, i32 0, i32 0
  %120 = load i8, ptr %119, align 1
  %121 = uitofp i8 %120 to float
  %122 = load float, ptr %22, align 4
  %123 = fmul float %121, %122
  %124 = getelementptr inbounds nuw %struct.Color, ptr %7, i32 0, i32 0
  %125 = load i8, ptr %124, align 1
  %126 = uitofp i8 %125 to float
  %127 = load float, ptr %22, align 4
  %128 = fsub float 1.000000e+00, %127
  %129 = fmul float %126, %128
  %130 = fadd float %123, %129
  %131 = fptosi float %130 to i32
  %132 = trunc i32 %131 to i8
  %133 = load ptr, ptr %12, align 8
  %134 = load i32, ptr %20, align 4
  %135 = load i32, ptr %9, align 4
  %136 = mul nsw i32 %134, %135
  %137 = load i32, ptr %18, align 4
  %138 = add nsw i32 %136, %137
  %139 = sext i32 %138 to i64
  %140 = getelementptr inbounds %struct.Color, ptr %133, i64 %139
  %141 = getelementptr inbounds nuw %struct.Color, ptr %140, i32 0, i32 0
  store i8 %132, ptr %141, align 1
  %142 = getelementptr inbounds nuw %struct.Color, ptr %8, i32 0, i32 1
  %143 = load i8, ptr %142, align 1
  %144 = uitofp i8 %143 to float
  %145 = load float, ptr %22, align 4
  %146 = fmul float %144, %145
  %147 = getelementptr inbounds nuw %struct.Color, ptr %7, i32 0, i32 1
  %148 = load i8, ptr %147, align 1
  %149 = uitofp i8 %148 to float
  %150 = load float, ptr %22, align 4
  %151 = fsub float 1.000000e+00, %150
  %152 = fmul float %149, %151
  %153 = fadd float %146, %152
  %154 = fptosi float %153 to i32
  %155 = trunc i32 %154 to i8
  %156 = load ptr, ptr %12, align 8
  %157 = load i32, ptr %20, align 4
  %158 = load i32, ptr %9, align 4
  %159 = mul nsw i32 %157, %158
  %160 = load i32, ptr %18, align 4
  %161 = add nsw i32 %159, %160
  %162 = sext i32 %161 to i64
  %163 = getelementptr inbounds %struct.Color, ptr %156, i64 %162
  %164 = getelementptr inbounds nuw %struct.Color, ptr %163, i32 0, i32 1
  store i8 %155, ptr %164, align 1
  %165 = getelementptr inbounds nuw %struct.Color, ptr %8, i32 0, i32 2
  %166 = load i8, ptr %165, align 1
  %167 = uitofp i8 %166 to float
  %168 = load float, ptr %22, align 4
  %169 = fmul float %167, %168
  %170 = getelementptr inbounds nuw %struct.Color, ptr %7, i32 0, i32 2
  %171 = load i8, ptr %170, align 1
  %172 = uitofp i8 %171 to float
  %173 = load float, ptr %22, align 4
  %174 = fsub float 1.000000e+00, %173
  %175 = fmul float %172, %174
  %176 = fadd float %169, %175
  %177 = fptosi float %176 to i32
  %178 = trunc i32 %177 to i8
  %179 = load ptr, ptr %12, align 8
  %180 = load i32, ptr %20, align 4
  %181 = load i32, ptr %9, align 4
  %182 = mul nsw i32 %180, %181
  %183 = load i32, ptr %18, align 4
  %184 = add nsw i32 %182, %183
  %185 = sext i32 %184 to i64
  %186 = getelementptr inbounds %struct.Color, ptr %179, i64 %185
  %187 = getelementptr inbounds nuw %struct.Color, ptr %186, i32 0, i32 2
  store i8 %178, ptr %187, align 1
  %188 = getelementptr inbounds nuw %struct.Color, ptr %8, i32 0, i32 3
  %189 = load i8, ptr %188, align 1
  %190 = uitofp i8 %189 to float
  %191 = load float, ptr %22, align 4
  %192 = fmul float %190, %191
  %193 = getelementptr inbounds nuw %struct.Color, ptr %7, i32 0, i32 3
  %194 = load i8, ptr %193, align 1
  %195 = uitofp i8 %194 to float
  %196 = load float, ptr %22, align 4
  %197 = fsub float 1.000000e+00, %196
  %198 = fmul float %195, %197
  %199 = fadd float %192, %198
  %200 = fptosi float %199 to i32
  %201 = trunc i32 %200 to i8
  %202 = load ptr, ptr %12, align 8
  %203 = load i32, ptr %20, align 4
  %204 = load i32, ptr %9, align 4
  %205 = mul nsw i32 %203, %204
  %206 = load i32, ptr %18, align 4
  %207 = add nsw i32 %205, %206
  %208 = sext i32 %207 to i64
  %209 = getelementptr inbounds %struct.Color, ptr %202, i64 %208
  %210 = getelementptr inbounds nuw %struct.Color, ptr %209, i32 0, i32 3
  store i8 %201, ptr %210, align 1
  call void @llvm.lifetime.end.p0(i64 4, ptr %22) #19
  call void @llvm.lifetime.end.p0(i64 4, ptr %21) #19
  br label %211

211:                                              ; preds = %114
  %212 = load i32, ptr %20, align 4
  %213 = add nsw i32 %212, 1
  store i32 %213, ptr %20, align 4
  br label %82

214:                                              ; preds = %86
  br label %215

215:                                              ; preds = %214
  %216 = load i32, ptr %18, align 4
  %217 = add nsw i32 %216, 1
  store i32 %217, ptr %18, align 4
  br label %76

218:                                              ; preds = %80
  %219 = getelementptr inbounds nuw %struct.Image, ptr %0, i32 0, i32 0
  %220 = load ptr, ptr %12, align 8
  store ptr %220, ptr %219, align 8
  %221 = getelementptr inbounds nuw %struct.Image, ptr %0, i32 0, i32 1
  %222 = load i32, ptr %9, align 4
  store i32 %222, ptr %221, align 8
  %223 = getelementptr inbounds nuw %struct.Image, ptr %0, i32 0, i32 2
  %224 = load i32, ptr %10, align 4
  store i32 %224, ptr %223, align 4
  %225 = getelementptr inbounds nuw %struct.Image, ptr %0, i32 0, i32 3
  store i32 1, ptr %225, align 8
  %226 = getelementptr inbounds nuw %struct.Image, ptr %0, i32 0, i32 4
  store i32 7, ptr %226, align 4
  store i32 1, ptr %19, align 4
  call void @llvm.lifetime.end.p0(i64 4, ptr %17) #19
  call void @llvm.lifetime.end.p0(i64 4, ptr %16) #19
  call void @llvm.lifetime.end.p0(i64 4, ptr %15) #19
  call void @llvm.lifetime.end.p0(i64 4, ptr %14) #19
  call void @llvm.lifetime.end.p0(i64 4, ptr %13) #19
  call void @llvm.lifetime.end.p0(i64 8, ptr %12) #19
  ret void
}