; Function Attrs: nofree nounwind memory(write, inaccessiblemem: readwrite) uwtable
define void @GenImageGradientLinear(ptr dead_on_unwind noalias writable writeonly sret(%struct.Image) align 8 captures(none) %0, i32 noundef %1, i32 noundef %2, i32 noundef %3, i32 %4, i32 %5) local_unnamed_addr #29 {
  %7 = mul nsw i32 %2, %1
  %8 = sext i32 %7 to i64
  %9 = shl nsw i64 %8, 2
  %10 = tail call noalias ptr @malloc(i64 noundef %9) #55
  %11 = sub nsw i32 90, %3
  %12 = sitofp i32 %11 to float
  %13 = fdiv float %12, 1.800000e+02
  %14 = fmul float %13, 0x400921FA00000000
  %15 = tail call float @cosf(float noundef %14) #54
  %16 = tail call float @sinf(float noundef %14) #54
  %17 = sitofp i32 %1 to float
  %18 = fmul float %15, %17
  %19 = fmul float %18, 5.000000e-01
  %20 = fsub float 5.000000e-01, %19
  %21 = sitofp i32 %2 to float
  %22 = fmul float %16, %21
  %23 = fmul float %22, 5.000000e-01
  %24 = fsub float %20, %23
  %25 = bitcast float %16 to i32
  %26 = bitcast float %15 to i32
  %.unshifted = xor i32 %25, %26
  %27 = fadd float %18, %24
  %28 = icmp slt i32 %.unshifted, 0
  %.sink = select i1 %28, float %27, float %24
  %29 = tail call float @llvm.fabs.f32(float %.sink)
  %30 = icmp sgt i32 %1, 0
  br i1 %30, label %.preheader.lr.ph, label %._crit_edge68

.preheader.lr.ph:                                 ; preds = %6
  %.sroa.4.0.extract.shift = lshr i32 %5, 24
  %.sroa.4.0.extract.trunc = trunc nuw i32 %.sroa.4.0.extract.shift to i8
  %.sroa.3.0.extract.shift = lshr i32 %5, 16
  %.sroa.3.0.extract.trunc = trunc i32 %.sroa.3.0.extract.shift to i8
  %.sroa.2.0.extract.shift = lshr i32 %5, 8
  %.sroa.2.0.extract.trunc = trunc i32 %.sroa.2.0.extract.shift to i8
  %.sroa.0.0.extract.trunc = trunc i32 %5 to i8
  %.sroa.462.0.extract.shift = lshr i32 %4, 24
  %.sroa.462.0.extract.trunc = trunc nuw i32 %.sroa.462.0.extract.shift to i8
  %.sroa.361.0.extract.shift = lshr i32 %4, 16
  %.sroa.361.0.extract.trunc = trunc i32 %.sroa.361.0.extract.shift to i8
  %.sroa.260.0.extract.shift = lshr i32 %4, 8
  %.sroa.260.0.extract.trunc = trunc i32 %.sroa.260.0.extract.shift to i8
  %.sroa.059.0.extract.trunc = trunc i32 %4 to i8
  %31 = icmp sgt i32 %2, 0
  %32 = uitofp i8 %.sroa.0.0.extract.trunc to float
  %33 = uitofp i8 %.sroa.059.0.extract.trunc to float
  %34 = uitofp i8 %.sroa.2.0.extract.trunc to float
  %35 = uitofp i8 %.sroa.260.0.extract.trunc to float
  %36 = uitofp i8 %.sroa.3.0.extract.trunc to float
  %37 = uitofp i8 %.sroa.361.0.extract.trunc to float
  %38 = uitofp i8 %.sroa.4.0.extract.trunc to float
  %39 = uitofp i8 %.sroa.462.0.extract.trunc to float
  br i1 %31, label %.preheader.us.preheader, label %._crit_edge68

.preheader.us.preheader:                          ; preds = %.preheader.lr.ph
  %40 = zext nneg i32 %1 to i64
  %wide.trip.count = zext nneg i32 %2 to i64
  br label %.preheader.us

.preheader.us:                                    ; preds = %.preheader.us.preheader, %._crit_edge.us
  %indvars.iv71 = phi i64 [ 0, %.preheader.us.preheader ], [ %indvars.iv.next72, %._crit_edge.us ]
  %41 = trunc nuw nsw i64 %indvars.iv71 to i32
  %42 = uitofp nneg i32 %41 to float
  %43 = fmul float %15, %42
  %invariant.gep = getelementptr inbounds nuw %struct.Color, ptr %10, i64 %indvars.iv71
  br label %44

44:                                               ; preds = %.preheader.us, %44
  %indvars.iv = phi i64 [ 0, %.preheader.us ], [ %indvars.iv.next, %44 ]
  %45 = trunc nuw nsw i64 %indvars.iv to i32
  %46 = uitofp nneg i32 %45 to float
  %47 = fmul float %16, %46
  %48 = fadd float %43, %47
  %49 = fadd float %24, %48
  %50 = fdiv float %49, %29
  %51 = fcmp ogt float %50, 1.000000e+00
  %52 = select i1 %51, float 1.000000e+00, float %50
  %53 = fcmp olt float %52, -1.000000e+00
  %54 = select i1 %53, float -1.000000e+00, float %52
  %55 = fmul float %54, 5.000000e-01
  %56 = fadd float %55, 5.000000e-01
  %57 = fmul float %56, %32
  %58 = fsub float 1.000000e+00, %56
  %59 = fmul float %58, %33
  %60 = fadd float %57, %59
  %61 = fptosi float %60 to i32
  %62 = trunc i32 %61 to i8
  %63 = mul nuw nsw i64 %indvars.iv, %40
  %gep = getelementptr inbounds nuw %struct.Color, ptr %invariant.gep, i64 %63
  store i8 %62, ptr %gep, align 1
  %64 = fmul float %56, %34
  %65 = fmul float %58, %35
  %66 = fadd float %64, %65
  %67 = fptosi float %66 to i32
  %68 = trunc i32 %67 to i8
  %69 = getelementptr inbounds nuw i8, ptr %gep, i64 1
  store i8 %68, ptr %69, align 1
  %70 = fmul float %56, %36
  %71 = fmul float %58, %37
  %72 = fadd float %70, %71
  %73 = fptosi float %72 to i32
  %74 = trunc i32 %73 to i8
  %75 = getelementptr inbounds nuw i8, ptr %gep, i64 2
  store i8 %74, ptr %75, align 1
  %76 = fmul float %56, %38
  %77 = fmul float %58, %39
  %78 = fadd float %76, %77
  %79 = fptosi float %78 to i32
  %80 = trunc i32 %79 to i8
  %81 = getelementptr inbounds nuw i8, ptr %gep, i64 3
  store i8 %80, ptr %81, align 1
  %indvars.iv.next = add nuw nsw i64 %indvars.iv, 1
  %exitcond.not = icmp eq i64 %indvars.iv.next, %wide.trip.count
  br i1 %exitcond.not, label %._crit_edge.us, label %44

._crit_edge.us:                                   ; preds = %44
  %indvars.iv.next72 = add nuw nsw i64 %indvars.iv71, 1
  %exitcond75.not = icmp eq i64 %indvars.iv.next72, %40
  br i1 %exitcond75.not, label %._crit_edge68, label %.preheader.us

._crit_edge68:                                    ; preds = %._crit_edge.us, %.preheader.lr.ph, %6
  store ptr %10, ptr %0, align 8
  %82 = getelementptr inbounds nuw i8, ptr %0, i64 8
  store i32 %1, ptr %82, align 8
  %83 = getelementptr inbounds nuw i8, ptr %0, i64 12
  store i32 %2, ptr %83, align 4
  %84 = getelementptr inbounds nuw i8, ptr %0, i64 16
  store i32 1, ptr %84, align 8
  %85 = getelementptr inbounds nuw i8, ptr %0, i64 20
  store i32 7, ptr %85, align 4
  ret void
}